; ModuleID = '7/604.c'
source_filename = "7/604.c"
target datalayout = "e-m:e-p270:32:32-p271:32:32-p272:64:64-i64:64-f80:128-n8:16:32:64-S128"
target triple = "x86_64-pc-linux-gnu"

@.str = private unnamed_addr constant [3 x i8] c"%s\00", align 1

; Function Attrs: noinline nounwind uwtable
define dso_local i32 @main() #0 {
  %1 = alloca i32, align 4
  %2 = alloca [257 x i8], align 16
  %3 = alloca [257 x i8], align 16
  %4 = alloca [257 x i8], align 16
  %5 = alloca [257 x i8], align 16
  %6 = alloca i32, align 4
  %7 = alloca i32, align 4
  %8 = alloca i32, align 4
  %9 = alloca i32, align 4
  %10 = alloca i32, align 4
  %11 = alloca i32, align 4
  store i32 0, i32* %1, align 4
  %12 = getelementptr inbounds [257 x i8], [257 x i8]* %2, i64 0, i64 0
  %13 = call i32 (i8*, ...) @__isoc99_scanf(i8* getelementptr inbounds ([3 x i8], [3 x i8]* @.str, i64 0, i64 0), i8* %12)
  %14 = getelementptr inbounds [257 x i8], [257 x i8]* %3, i64 0, i64 0
  %15 = call i32 (i8*, ...) @__isoc99_scanf(i8* getelementptr inbounds ([3 x i8], [3 x i8]* @.str, i64 0, i64 0), i8* %14)
  %16 = getelementptr inbounds [257 x i8], [257 x i8]* %4, i64 0, i64 0
  %17 = call i32 (i8*, ...) @__isoc99_scanf(i8* getelementptr inbounds ([3 x i8], [3 x i8]* @.str, i64 0, i64 0), i8* %16)
  %18 = getelementptr inbounds [257 x i8], [257 x i8]* %2, i64 0, i64 0
  %19 = call i64 @strlen(i8* %18) #3
  %20 = trunc i64 %19 to i32
  store i32 %20, i32* %10, align 4
  %21 = getelementptr inbounds [257 x i8], [257 x i8]* %3, i64 0, i64 0
  %22 = call i64 @strlen(i8* %21) #3
  %23 = trunc i64 %22 to i32
  store i32 %23, i32* %11, align 4
  store i32 0, i32* %6, align 4
  br label %24

24:                                               ; preds = %90, %0
  %25 = load i32, i32* %6, align 4
  %26 = load i32, i32* %10, align 4
  %27 = icmp slt i32 %25, %26
  br i1 %27, label %28, label %93

28:                                               ; preds = %24
  store i32 0, i32* %7, align 4
  store i32 0, i32* %9, align 4
  br label %29

29:                                               ; preds = %51, %28
  %30 = load i32, i32* %9, align 4
  %31 = load i32, i32* %11, align 4
  %32 = icmp slt i32 %30, %31
  br i1 %32, label %33, label %54

33:                                               ; preds = %29
  %34 = load i32, i32* %9, align 4
  %35 = sext i32 %34 to i64
  %36 = getelementptr inbounds [257 x i8], [257 x i8]* %3, i64 0, i64 %35
  %37 = load i8, i8* %36, align 1
  %38 = sext i8 %37 to i32
  %39 = load i32, i32* %6, align 4
  %40 = load i32, i32* %9, align 4
  %41 = add nsw i32 %39, %40
  %42 = sext i32 %41 to i64
  %43 = getelementptr inbounds [257 x i8], [257 x i8]* %2, i64 0, i64 %42
  %44 = load i8, i8* %43, align 1
  %45 = sext i8 %44 to i32
  %46 = icmp eq i32 %38, %45
  br i1 %46, label %47, label %50

47:                                               ; preds = %33
  %48 = load i32, i32* %7, align 4
  %49 = add nsw i32 %48, 1
  store i32 %49, i32* %7, align 4
  br label %50

50:                                               ; preds = %47, %33
  br label %51

51:                                               ; preds = %50
  %52 = load i32, i32* %9, align 4
  %53 = add nsw i32 %52, 1
  store i32 %53, i32* %9, align 4
  br label %29

54:                                               ; preds = %29
  %55 = load i32, i32* %7, align 4
  %56 = load i32, i32* %11, align 4
  %57 = icmp eq i32 %55, %56
  br i1 %57, label %58, label %89

58:                                               ; preds = %54
  store i32 0, i32* %8, align 4
  br label %59

59:                                               ; preds = %79, %58
  %60 = load i32, i32* %8, align 4
  %61 = load i32, i32* %10, align 4
  %62 = load i32, i32* %6, align 4
  %63 = sub nsw i32 %61, %62
  %64 = load i32, i32* %11, align 4
  %65 = sub nsw i32 %63, %64
  %66 = icmp slt i32 %60, %65
  br i1 %66, label %67, label %82

67:                                               ; preds = %59
  %68 = load i32, i32* %8, align 4
  %69 = load i32, i32* %6, align 4
  %70 = add nsw i32 %68, %69
  %71 = load i32, i32* %7, align 4
  %72 = add nsw i32 %70, %71
  %73 = sext i32 %72 to i64
  %74 = getelementptr inbounds [257 x i8], [257 x i8]* %2, i64 0, i64 %73
  %75 = load i8, i8* %74, align 1
  %76 = load i32, i32* %8, align 4
  %77 = sext i32 %76 to i64
  %78 = getelementptr inbounds [257 x i8], [257 x i8]* %5, i64 0, i64 %77
  store i8 %75, i8* %78, align 1
  br label %79

79:                                               ; preds = %67
  %80 = load i32, i32* %8, align 4
  %81 = add nsw i32 %80, 1
  store i32 %81, i32* %8, align 4
  br label %59

82:                                               ; preds = %59
  %83 = load i32, i32* %8, align 4
  %84 = sext i32 %83 to i64
  %85 = getelementptr inbounds [257 x i8], [257 x i8]* %5, i64 0, i64 %84
  store i8 0, i8* %85, align 1
  %86 = load i32, i32* %6, align 4
  %87 = sext i32 %86 to i64
  %88 = getelementptr inbounds [257 x i8], [257 x i8]* %2, i64 0, i64 %87
  store i8 0, i8* %88, align 1
  br label %93

89:                                               ; preds = %54
  br label %90

90:                                               ; preds = %89
  %91 = load i32, i32* %6, align 4
  %92 = add nsw i32 %91, 1
  store i32 %92, i32* %6, align 4
  br label %24

93:                                               ; preds = %82, %24
  %94 = getelementptr inbounds [257 x i8], [257 x i8]* %2, i64 0, i64 0
  %95 = call i32 (i8*, ...) @printf(i8* getelementptr inbounds ([3 x i8], [3 x i8]* @.str, i64 0, i64 0), i8* %94)
  %96 = load i32, i32* %7, align 4
  %97 = load i32, i32* %11, align 4
  %98 = icmp eq i32 %96, %97
  br i1 %98, label %99, label %104

99:                                               ; preds = %93
  %100 = getelementptr inbounds [257 x i8], [257 x i8]* %4, i64 0, i64 0
  %101 = call i32 (i8*, ...) @printf(i8* getelementptr inbounds ([3 x i8], [3 x i8]* @.str, i64 0, i64 0), i8* %100)
  %102 = getelementptr inbounds [257 x i8], [257 x i8]* %5, i64 0, i64 0
  %103 = call i32 (i8*, ...) @printf(i8* getelementptr inbounds ([3 x i8], [3 x i8]* @.str, i64 0, i64 0), i8* %102)
  br label %104

104:                                              ; preds = %99, %93
  ret i32 0
}

declare dso_local i32 @__isoc99_scanf(i8*, ...) #1

; Function Attrs: nounwind readonly
declare dso_local i64 @strlen(i8*) #2

declare dso_local i32 @printf(i8*, ...) #1


!llvm.module.flags = !{!0}
!llvm.ident = !{!1}

!0 = !{i32 1, !"wchar_size", i32 4}
!1 = !{!"clang version 10.0.0-4ubuntu1 "}
